ARM GAS  C:\Users\T470S\AppData\Local\Temp\ccLgaCHg.s 			page 1


   1              		.cpu cortex-m3
   2              		.eabi_attribute 20, 1
   3              		.eabi_attribute 21, 1
   4              		.eabi_attribute 23, 3
   5              		.eabi_attribute 24, 1
   6              		.eabi_attribute 25, 1
   7              		.eabi_attribute 26, 1
   8              		.eabi_attribute 30, 1
   9              		.eabi_attribute 34, 1
  10              		.eabi_attribute 18, 4
  11              		.file	"gpio.c"
  12              		.text
  13              	.Ltext0:
  14              		.cfi_sections	.debug_frame
  15              		.section	.text.MX_GPIO_Init,"ax",%progbits
  16              		.align	1
  17              		.global	MX_GPIO_Init
  18              		.arch armv7-m
  19              		.syntax unified
  20              		.thumb
  21              		.thumb_func
  22              		.fpu softvfp
  24              	MX_GPIO_Init:
  25              	.LFB65:
  26              		.file 1 "Core/Src/gpio.c"
   1:Core/Src/gpio.c **** /**
   2:Core/Src/gpio.c ****   ******************************************************************************
   3:Core/Src/gpio.c ****   * @file    gpio.c
   4:Core/Src/gpio.c ****   * @brief   This file provides code for the configuration
   5:Core/Src/gpio.c ****   *          of all used GPIO pins.
   6:Core/Src/gpio.c ****   ******************************************************************************
   7:Core/Src/gpio.c ****   * @attention
   8:Core/Src/gpio.c ****   *
   9:Core/Src/gpio.c ****   * <h2><center>&copy; Copyright (c) 2021 STMicroelectronics.
  10:Core/Src/gpio.c ****   * All rights reserved.</center></h2>
  11:Core/Src/gpio.c ****   *
  12:Core/Src/gpio.c ****   * This software component is licensed by ST under BSD 3-Clause license,
  13:Core/Src/gpio.c ****   * the "License"; You may not use this file except in compliance with the
  14:Core/Src/gpio.c ****   * License. You may obtain a copy of the License at:
  15:Core/Src/gpio.c ****   *                        opensource.org/licenses/BSD-3-Clause
  16:Core/Src/gpio.c ****   *
  17:Core/Src/gpio.c ****   ******************************************************************************
  18:Core/Src/gpio.c ****   */
  19:Core/Src/gpio.c **** 
  20:Core/Src/gpio.c **** /* Includes ------------------------------------------------------------------*/
  21:Core/Src/gpio.c **** #include "gpio.h"
  22:Core/Src/gpio.c **** 
  23:Core/Src/gpio.c **** /* USER CODE BEGIN 0 */
  24:Core/Src/gpio.c **** 
  25:Core/Src/gpio.c **** /* USER CODE END 0 */
  26:Core/Src/gpio.c **** 
  27:Core/Src/gpio.c **** /*----------------------------------------------------------------------------*/
  28:Core/Src/gpio.c **** /* Configure GPIO                                                             */
  29:Core/Src/gpio.c **** /*----------------------------------------------------------------------------*/
  30:Core/Src/gpio.c **** /* USER CODE BEGIN 1 */
  31:Core/Src/gpio.c **** 
  32:Core/Src/gpio.c **** /* USER CODE END 1 */
ARM GAS  C:\Users\T470S\AppData\Local\Temp\ccLgaCHg.s 			page 2


  33:Core/Src/gpio.c **** 
  34:Core/Src/gpio.c **** /** Configure pins
  35:Core/Src/gpio.c **** */
  36:Core/Src/gpio.c **** void MX_GPIO_Init(void)
  37:Core/Src/gpio.c **** {
  27              		.loc 1 37 1 view -0
  28              		.cfi_startproc
  29              		@ args = 0, pretend = 0, frame = 24
  30              		@ frame_needed = 0, uses_anonymous_args = 0
  31 0000 10B5     		push	{r4, lr}
  32              	.LCFI0:
  33              		.cfi_def_cfa_offset 8
  34              		.cfi_offset 4, -8
  35              		.cfi_offset 14, -4
  36 0002 86B0     		sub	sp, sp, #24
  37              	.LCFI1:
  38              		.cfi_def_cfa_offset 32
  38:Core/Src/gpio.c **** 
  39:Core/Src/gpio.c ****   GPIO_InitTypeDef GPIO_InitStruct = {0};
  39              		.loc 1 39 3 view .LVU1
  40              		.loc 1 39 20 is_stmt 0 view .LVU2
  41 0004 0022     		movs	r2, #0
  42 0006 0292     		str	r2, [sp, #8]
  43 0008 0392     		str	r2, [sp, #12]
  44 000a 0492     		str	r2, [sp, #16]
  45 000c 0592     		str	r2, [sp, #20]
  40:Core/Src/gpio.c **** 
  41:Core/Src/gpio.c ****   /* GPIO Ports Clock Enable */
  42:Core/Src/gpio.c ****   __HAL_RCC_GPIOB_CLK_ENABLE();
  46              		.loc 1 42 3 is_stmt 1 view .LVU3
  47              	.LBB2:
  48              		.loc 1 42 3 view .LVU4
  49              		.loc 1 42 3 view .LVU5
  50 000e 0E4B     		ldr	r3, .L3
  51 0010 9969     		ldr	r1, [r3, #24]
  52 0012 41F00801 		orr	r1, r1, #8
  53 0016 9961     		str	r1, [r3, #24]
  54              		.loc 1 42 3 view .LVU6
  55 0018 9B69     		ldr	r3, [r3, #24]
  56 001a 03F00803 		and	r3, r3, #8
  57 001e 0193     		str	r3, [sp, #4]
  58              		.loc 1 42 3 view .LVU7
  59 0020 019B     		ldr	r3, [sp, #4]
  60              	.LBE2:
  61              		.loc 1 42 3 view .LVU8
  43:Core/Src/gpio.c **** 
  44:Core/Src/gpio.c ****   /*Configure GPIO pin Output Level */
  45:Core/Src/gpio.c ****   HAL_GPIO_WritePin(GPIOB, GPIO_PIN_6|GPIO_PIN_7, GPIO_PIN_RESET);
  62              		.loc 1 45 3 view .LVU9
  63 0022 0A4C     		ldr	r4, .L3+4
  64 0024 C021     		movs	r1, #192
  65 0026 2046     		mov	r0, r4
  66 0028 FFF7FEFF 		bl	HAL_GPIO_WritePin
  67              	.LVL0:
  46:Core/Src/gpio.c **** 
  47:Core/Src/gpio.c ****   /*Configure GPIO pins : PB6 PB7 */
  48:Core/Src/gpio.c ****   GPIO_InitStruct.Pin = GPIO_PIN_6|GPIO_PIN_7;
ARM GAS  C:\Users\T470S\AppData\Local\Temp\ccLgaCHg.s 			page 3


  68              		.loc 1 48 3 view .LVU10
  69              		.loc 1 48 23 is_stmt 0 view .LVU11
  70 002c C023     		movs	r3, #192
  71 002e 0293     		str	r3, [sp, #8]
  49:Core/Src/gpio.c ****   GPIO_InitStruct.Mode = GPIO_MODE_OUTPUT_OD;
  72              		.loc 1 49 3 is_stmt 1 view .LVU12
  73              		.loc 1 49 24 is_stmt 0 view .LVU13
  74 0030 1123     		movs	r3, #17
  75 0032 0393     		str	r3, [sp, #12]
  50:Core/Src/gpio.c ****   GPIO_InitStruct.Pull = GPIO_PULLUP;
  76              		.loc 1 50 3 is_stmt 1 view .LVU14
  77              		.loc 1 50 24 is_stmt 0 view .LVU15
  78 0034 0123     		movs	r3, #1
  79 0036 0493     		str	r3, [sp, #16]
  51:Core/Src/gpio.c ****   GPIO_InitStruct.Speed = GPIO_SPEED_FREQ_LOW;
  80              		.loc 1 51 3 is_stmt 1 view .LVU16
  81              		.loc 1 51 25 is_stmt 0 view .LVU17
  82 0038 0223     		movs	r3, #2
  83 003a 0593     		str	r3, [sp, #20]
  52:Core/Src/gpio.c ****   HAL_GPIO_Init(GPIOB, &GPIO_InitStruct);
  84              		.loc 1 52 3 is_stmt 1 view .LVU18
  85 003c 02A9     		add	r1, sp, #8
  86 003e 2046     		mov	r0, r4
  87 0040 FFF7FEFF 		bl	HAL_GPIO_Init
  88              	.LVL1:
  53:Core/Src/gpio.c **** 
  54:Core/Src/gpio.c **** }
  89              		.loc 1 54 1 is_stmt 0 view .LVU19
  90 0044 06B0     		add	sp, sp, #24
  91              	.LCFI2:
  92              		.cfi_def_cfa_offset 8
  93              		@ sp needed
  94 0046 10BD     		pop	{r4, pc}
  95              	.L4:
  96              		.align	2
  97              	.L3:
  98 0048 00100240 		.word	1073876992
  99 004c 000C0140 		.word	1073810432
 100              		.cfi_endproc
 101              	.LFE65:
 103              		.text
 104              	.Letext0:
 105              		.file 2 "c:\\program files (x86)\\gnu arm embedded toolchain\\10 2020-q4-major\\arm-none-eabi\\inc
 106              		.file 3 "c:\\program files (x86)\\gnu arm embedded toolchain\\10 2020-q4-major\\arm-none-eabi\\inc
 107              		.file 4 "Drivers/CMSIS/Device/ST/STM32F1xx/Include/stm32f103xb.h"
 108              		.file 5 "Drivers/STM32F1xx_HAL_Driver/Inc/stm32f1xx_hal_gpio.h"
ARM GAS  C:\Users\T470S\AppData\Local\Temp\ccLgaCHg.s 			page 4

